target datalayout = "e-m:e-p270:32:32-p271:32:32-p272:64:64-i64:64-i128:128-f80:128-n8:16:32:64-S128"
target triple = "x86_64-pc-linux-gnu"

%struct.ma_allocation_callbacks = type { ptr, ptr, ptr, ptr }
%struct.ma_data_source_base = type { ptr, i64, i64, i64, i64, ptr, ptr, ptr, i32 }
%struct.ma_data_converter = type { i32, i32, i32, i32, i32, i32, i32, i32, %struct.ma_channel_converter, %struct.ma_resampler, i8, i8, i8, i8, i8, i8, ptr }
%struct.ma_channel_converter = type { i32, i32, i32, i32, i32, ptr, ptr, ptr, %union.anon.22, ptr, i32 }
%union.anon.22 = type { ptr }
%struct.ma_resampler = type { ptr, ptr, ptr, i32, i32, i32, i32, %union.anon.23, ptr, i32 }
%union.anon.23 = type { %struct.ma_linear_resampler }
%struct.ma_linear_resampler = type { %struct.ma_linear_resampler_config, i32, i32, i32, i32, %union.anon.24, %union.anon.25, %struct.ma_lpf, ptr, i32 }
%struct.ma_linear_resampler_config = type { i32, i32, i32, i32, i32, double }
%union.anon.24 = type { ptr }
%union.anon.25 = type { ptr }
%struct.ma_lpf = type { i32, i32, i32, i32, i32, ptr, ptr, ptr, i32 }
%struct.ma_decoder = type { %struct.ma_data_source_base, ptr, ptr, ptr, ptr, ptr, ptr, ptr, i64, i32, i32, i32, %struct.ma_data_converter, ptr, i64, i64, i64, %struct.ma_allocation_callbacks, %union.anon.56 }
%union.anon.56 = type { %struct.anon.58 }
%struct.anon.58 = type { ptr, i64, i64 }

; Function Attrs: nounwind uwtable
define i32 @ma_decoder_get_cursor_in_pcm_frames(ptr noundef %0, ptr noundef %1) #0 {
  %3 = alloca i32, align 4
  %4 = alloca ptr, align 8
  %5 = alloca ptr, align 8
  store ptr %0, ptr %4, align 8, !tbaa !1043
  store ptr %1, ptr %5, align 8, !tbaa !81
  %6 = load ptr, ptr %5, align 8, !tbaa !81
  %7 = icmp eq ptr %6, null
  br i1 %7, label %8, label %9

8:                                                ; preds = %2
  store i32 -2, ptr %3, align 4
  br label %19

9:                                                ; preds = %2
  %10 = load ptr, ptr %5, align 8, !tbaa !81
  store i64 0, ptr %10, align 8, !tbaa !47
  %11 = load ptr, ptr %4, align 8, !tbaa !1043
  %12 = icmp eq ptr %11, null
  br i1 %12, label %13, label %14

13:                                               ; preds = %9
  store i32 -2, ptr %3, align 4
  br label %19

14:                                               ; preds = %9
  %15 = load ptr, ptr %4, align 8, !tbaa !1043
  %16 = getelementptr inbounds nuw %struct.ma_decoder, ptr %15, i32 0, i32 8
  %17 = load i64, ptr %16, align 8, !tbaa !1072
  %18 = load ptr, ptr %5, align 8, !tbaa !81
  store i64 %17, ptr %18, align 8, !tbaa !47
  store i32 0, ptr %3, align 4
  br label %19

19:                                               ; preds = %14, %13, %8
  %20 = load i32, ptr %3, align 4
  ret i32 %20
}